; ModuleID = '19/186.c'
source_filename = "19/186.c"
target datalayout = "e-m:e-p270:32:32-p271:32:32-p272:64:64-i64:64-f80:128-n8:16:32:64-S128"
target triple = "x86_64-pc-linux-gnu"

@.str = private unnamed_addr constant [3 x i8] c"%s\00", align 1

; Function Attrs: noinline nounwind uwtable
define dso_local i32 @main() #0 {
  %1 = alloca i32, align 4
  %2 = alloca [200 x i8], align 16
  %3 = alloca [200 x i8], align 16
  %4 = alloca [200 x i8], align 16
  %5 = alloca [200 x i8], align 16
  %6 = alloca i32, align 4
  %7 = alloca i32, align 4
  %8 = alloca i32, align 4
  %9 = alloca i32, align 4
  %10 = alloca i32, align 4
  %11 = alloca i32, align 4
  %12 = alloca i32, align 4
  %13 = alloca i32, align 4
  store i32 0, i32* %1, align 4
  store i32 0, i32* %6, align 4
  store i32 0, i32* %10, align 4
  store i32 0, i32* %11, align 4
  store i32 0, i32* %12, align 4
  %14 = getelementptr inbounds [200 x i8], [200 x i8]* %2, i64 0, i64 0
  %15 = call i32 (i8*, ...) bitcast (i32 (...)* @gets to i32 (i8*, ...)*)(i8* %14)
  %16 = call i32 (i8*, ...) @__isoc99_scanf(i8* getelementptr inbounds ([3 x i8], [3 x i8]* @.str, i64 0, i64 0), [200 x i8]* %3)
  %17 = call i32 (i8*, ...) @__isoc99_scanf(i8* getelementptr inbounds ([3 x i8], [3 x i8]* @.str, i64 0, i64 0), [200 x i8]* %4)
  %18 = getelementptr inbounds [200 x i8], [200 x i8]* %3, i64 0, i64 0
  %19 = call i64 @strlen(i8* %18) #3
  %20 = trunc i64 %19 to i32
  store i32 %20, i32* %7, align 4
  %21 = getelementptr inbounds [200 x i8], [200 x i8]* %2, i64 0, i64 0
  %22 = call i64 @strlen(i8* %21) #3
  %23 = trunc i64 %22 to i32
  store i32 %23, i32* %8, align 4
  %24 = getelementptr inbounds [200 x i8], [200 x i8]* %4, i64 0, i64 0
  %25 = call i64 @strlen(i8* %24) #3
  %26 = trunc i64 %25 to i32
  store i32 %26, i32* %9, align 4
  br label %27

27:                                               ; preds = %218, %0
  %28 = load i32, i32* %6, align 4
  %29 = load i32, i32* %8, align 4
  %30 = icmp ne i32 %28, %29
  br i1 %30, label %31, label %219

31:                                               ; preds = %27
  store i32 0, i32* %10, align 4
  store i32 0, i32* %11, align 4
  %32 = load i32, i32* %6, align 4
  %33 = icmp ne i32 %32, 0
  br i1 %33, label %34, label %138

34:                                               ; preds = %31
  %35 = load i32, i32* %6, align 4
  %36 = sext i32 %35 to i64
  %37 = getelementptr inbounds [200 x i8], [200 x i8]* %2, i64 0, i64 %36
  %38 = load i8, i8* %37, align 1
  %39 = sext i8 %38 to i32
  %40 = load i32, i32* %10, align 4
  %41 = sext i32 %40 to i64
  %42 = getelementptr inbounds [200 x i8], [200 x i8]* %3, i64 0, i64 %41
  %43 = load i8, i8* %42, align 1
  %44 = sext i8 %43 to i32
  %45 = icmp eq i32 %39, %44
  br i1 %45, label %46, label %125

46:                                               ; preds = %34
  %47 = load i32, i32* %6, align 4
  %48 = sub nsw i32 %47, 1
  %49 = sext i32 %48 to i64
  %50 = getelementptr inbounds [200 x i8], [200 x i8]* %2, i64 0, i64 %49
  %51 = load i8, i8* %50, align 1
  %52 = sext i8 %51 to i32
  %53 = icmp eq i32 %52, 32
  br i1 %53, label %54, label %125

54:                                               ; preds = %46
  %55 = load i32, i32* %6, align 4
  store i32 %55, i32* %13, align 4
  br label %56

56:                                               ; preds = %84, %54
  %57 = load i32, i32* %6, align 4
  %58 = sext i32 %57 to i64
  %59 = getelementptr inbounds [200 x i8], [200 x i8]* %2, i64 0, i64 %58
  %60 = load i8, i8* %59, align 1
  %61 = sext i8 %60 to i32
  %62 = load i32, i32* %10, align 4
  %63 = sext i32 %62 to i64
  %64 = getelementptr inbounds [200 x i8], [200 x i8]* %3, i64 0, i64 %63
  %65 = load i8, i8* %64, align 1
  %66 = sext i8 %65 to i32
  %67 = icmp eq i32 %61, %66
  br i1 %67, label %68, label %82

68:                                               ; preds = %56
  %69 = load i32, i32* %6, align 4
  %70 = sext i32 %69 to i64
  %71 = getelementptr inbounds [200 x i8], [200 x i8]* %2, i64 0, i64 %70
  %72 = load i8, i8* %71, align 1
  %73 = sext i8 %72 to i32
  %74 = icmp ne i32 %73, 32
  br i1 %74, label %75, label %82

75:                                               ; preds = %68
  %76 = load i32, i32* %6, align 4
  %77 = sext i32 %76 to i64
  %78 = getelementptr inbounds [200 x i8], [200 x i8]* %2, i64 0, i64 %77
  %79 = load i8, i8* %78, align 1
  %80 = sext i8 %79 to i32
  %81 = icmp ne i32 %80, 0
  br label %82

82:                                               ; preds = %75, %68, %56
  %83 = phi i1 [ false, %68 ], [ false, %56 ], [ %81, %75 ]
  br i1 %83, label %84, label %89

84:                                               ; preds = %82
  %85 = load i32, i32* %10, align 4
  %86 = add nsw i32 %85, 1
  store i32 %86, i32* %10, align 4
  %87 = load i32, i32* %6, align 4
  %88 = add nsw i32 %87, 1
  store i32 %88, i32* %6, align 4
  br label %56

89:                                               ; preds = %82
  %90 = load i32, i32* %10, align 4
  %91 = load i32, i32* %7, align 4
  %92 = icmp eq i32 %90, %91
  br i1 %92, label %93, label %111

93:                                               ; preds = %89
  br label %94

94:                                               ; preds = %98, %93
  %95 = load i32, i32* %11, align 4
  %96 = load i32, i32* %9, align 4
  %97 = icmp ne i32 %95, %96
  br i1 %97, label %98, label %110

98:                                               ; preds = %94
  %99 = load i32, i32* %11, align 4
  %100 = sext i32 %99 to i64
  %101 = getelementptr inbounds [200 x i8], [200 x i8]* %4, i64 0, i64 %100
  %102 = load i8, i8* %101, align 1
  %103 = load i32, i32* %12, align 4
  %104 = sext i32 %103 to i64
  %105 = getelementptr inbounds [200 x i8], [200 x i8]* %5, i64 0, i64 %104
  store i8 %102, i8* %105, align 1
  %106 = load i32, i32* %12, align 4
  %107 = add nsw i32 %106, 1
  store i32 %107, i32* %12, align 4
  %108 = load i32, i32* %11, align 4
  %109 = add nsw i32 %108, 1
  store i32 %109, i32* %11, align 4
  br label %94

110:                                              ; preds = %94
  br label %124

111:                                              ; preds = %89
  %112 = load i32, i32* %13, align 4
  store i32 %112, i32* %6, align 4
  %113 = load i32, i32* %6, align 4
  %114 = sext i32 %113 to i64
  %115 = getelementptr inbounds [200 x i8], [200 x i8]* %2, i64 0, i64 %114
  %116 = load i8, i8* %115, align 1
  %117 = load i32, i32* %12, align 4
  %118 = sext i32 %117 to i64
  %119 = getelementptr inbounds [200 x i8], [200 x i8]* %5, i64 0, i64 %118
  store i8 %116, i8* %119, align 1
  %120 = load i32, i32* %12, align 4
  %121 = add nsw i32 %120, 1
  store i32 %121, i32* %12, align 4
  %122 = load i32, i32* %6, align 4
  %123 = add nsw i32 %122, 1
  store i32 %123, i32* %6, align 4
  br label %124

124:                                              ; preds = %111, %110
  br label %137

125:                                              ; preds = %46, %34
  %126 = load i32, i32* %6, align 4
  %127 = sext i32 %126 to i64
  %128 = getelementptr inbounds [200 x i8], [200 x i8]* %2, i64 0, i64 %127
  %129 = load i8, i8* %128, align 1
  %130 = load i32, i32* %12, align 4
  %131 = sext i32 %130 to i64
  %132 = getelementptr inbounds [200 x i8], [200 x i8]* %5, i64 0, i64 %131
  store i8 %129, i8* %132, align 1
  %133 = load i32, i32* %6, align 4
  %134 = add nsw i32 %133, 1
  store i32 %134, i32* %6, align 4
  %135 = load i32, i32* %12, align 4
  %136 = add nsw i32 %135, 1
  store i32 %136, i32* %12, align 4
  br label %137

137:                                              ; preds = %125, %124
  br label %218

138:                                              ; preds = %31
  %139 = load i32, i32* %6, align 4
  %140 = sext i32 %139 to i64
  %141 = getelementptr inbounds [200 x i8], [200 x i8]* %2, i64 0, i64 %140
  %142 = load i8, i8* %141, align 1
  %143 = sext i8 %142 to i32
  %144 = load i32, i32* %10, align 4
  %145 = sext i32 %144 to i64
  %146 = getelementptr inbounds [200 x i8], [200 x i8]* %3, i64 0, i64 %145
  %147 = load i8, i8* %146, align 1
  %148 = sext i8 %147 to i32
  %149 = icmp eq i32 %143, %148
  br i1 %149, label %150, label %205

150:                                              ; preds = %138
  %151 = load i32, i32* %6, align 4
  store i32 %151, i32* %13, align 4
  br label %152

152:                                              ; preds = %164, %150
  %153 = load i32, i32* %6, align 4
  %154 = sext i32 %153 to i64
  %155 = getelementptr inbounds [200 x i8], [200 x i8]* %2, i64 0, i64 %154
  %156 = load i8, i8* %155, align 1
  %157 = sext i8 %156 to i32
  %158 = load i32, i32* %10, align 4
  %159 = sext i32 %158 to i64
  %160 = getelementptr inbounds [200 x i8], [200 x i8]* %3, i64 0, i64 %159
  %161 = load i8, i8* %160, align 1
  %162 = sext i8 %161 to i32
  %163 = icmp eq i32 %157, %162
  br i1 %163, label %164, label %169

164:                                              ; preds = %152
  %165 = load i32, i32* %10, align 4
  %166 = add nsw i32 %165, 1
  store i32 %166, i32* %10, align 4
  %167 = load i32, i32* %6, align 4
  %168 = add nsw i32 %167, 1
  store i32 %168, i32* %6, align 4
  br label %152

169:                                              ; preds = %152
  %170 = load i32, i32* %10, align 4
  %171 = load i32, i32* %7, align 4
  %172 = icmp eq i32 %170, %171
  br i1 %172, label %173, label %191

173:                                              ; preds = %169
  br label %174

174:                                              ; preds = %178, %173
  %175 = load i32, i32* %11, align 4
  %176 = load i32, i32* %9, align 4
  %177 = icmp ne i32 %175, %176
  br i1 %177, label %178, label %190

178:                                              ; preds = %174
  %179 = load i32, i32* %11, align 4
  %180 = sext i32 %179 to i64
  %181 = getelementptr inbounds [200 x i8], [200 x i8]* %4, i64 0, i64 %180
  %182 = load i8, i8* %181, align 1
  %183 = load i32, i32* %12, align 4
  %184 = sext i32 %183 to i64
  %185 = getelementptr inbounds [200 x i8], [200 x i8]* %5, i64 0, i64 %184
  store i8 %182, i8* %185, align 1
  %186 = load i32, i32* %12, align 4
  %187 = add nsw i32 %186, 1
  store i32 %187, i32* %12, align 4
  %188 = load i32, i32* %11, align 4
  %189 = add nsw i32 %188, 1
  store i32 %189, i32* %11, align 4
  br label %174

190:                                              ; preds = %174
  br label %204

191:                                              ; preds = %169
  %192 = load i32, i32* %13, align 4
  store i32 %192, i32* %6, align 4
  %193 = load i32, i32* %6, align 4
  %194 = sext i32 %193 to i64
  %195 = getelementptr inbounds [200 x i8], [200 x i8]* %2, i64 0, i64 %194
  %196 = load i8, i8* %195, align 1
  %197 = load i32, i32* %12, align 4
  %198 = sext i32 %197 to i64
  %199 = getelementptr inbounds [200 x i8], [200 x i8]* %5, i64 0, i64 %198
  store i8 %196, i8* %199, align 1
  %200 = load i32, i32* %12, align 4
  %201 = add nsw i32 %200, 1
  store i32 %201, i32* %12, align 4
  %202 = load i32, i32* %6, align 4
  %203 = add nsw i32 %202, 1
  store i32 %203, i32* %6, align 4
  br label %204

204:                                              ; preds = %191, %190
  br label %217

205:                                              ; preds = %138
  %206 = load i32, i32* %6, align 4
  %207 = sext i32 %206 to i64
  %208 = getelementptr inbounds [200 x i8], [200 x i8]* %2, i64 0, i64 %207
  %209 = load i8, i8* %208, align 1
  %210 = load i32, i32* %12, align 4
  %211 = sext i32 %210 to i64
  %212 = getelementptr inbounds [200 x i8], [200 x i8]* %5, i64 0, i64 %211
  store i8 %209, i8* %212, align 1
  %213 = load i32, i32* %6, align 4
  %214 = add nsw i32 %213, 1
  store i32 %214, i32* %6, align 4
  %215 = load i32, i32* %12, align 4
  %216 = add nsw i32 %215, 1
  store i32 %216, i32* %12, align 4
  br label %217

217:                                              ; preds = %205, %204
  br label %218

218:                                              ; preds = %217, %137
  br label %27

219:                                              ; preds = %27
  %220 = load i32, i32* %12, align 4
  %221 = sext i32 %220 to i64
  %222 = getelementptr inbounds [200 x i8], [200 x i8]* %5, i64 0, i64 %221
  store i8 0, i8* %222, align 1
  %223 = getelementptr inbounds [200 x i8], [200 x i8]* %5, i64 0, i64 0
  %224 = call i32 @puts(i8* %223)
  ret i32 0
}

declare dso_local i32 @gets(...) #1

declare dso_local i32 @__isoc99_scanf(i8*, ...) #1

; Function Attrs: nounwind readonly
declare dso_local i64 @strlen(i8*) #2

declare dso_local i32 @puts(i8*) #1


!llvm.module.flags = !{!0}
!llvm.ident = !{!1}

!0 = !{i32 1, !"wchar_size", i32 4}
!1 = !{!"clang version 10.0.0-4ubuntu1 "}
